target datalayout = "e-m:e-p270:32:32-p271:32:32-p272:64:64-i64:64-i128:128-f80:128-n8:16:32:64-S128"
target triple = "x86_64-pc-linux-gnu"

%struct._zval_struct = type { %union._zend_value, %union.anon.3, %union.anon.6 }
%union._zend_value = type { i64 }
%union.anon.3 = type { i32 }
%union.anon.6 = type { i32 }
%struct._php_stream_filter_chain = type { ptr, ptr, ptr }
%struct._php_stream_bucket_brigade = type { ptr, ptr }
%struct._php_stream_filter = type { ptr, %struct._zval_struct, ptr, ptr, i32, ptr, %struct._php_stream_bucket_brigade, ptr }
%struct._php_stream_filter_ops = type { ptr, ptr, ptr }

; Function Attrs: nounwind uwtable
define void @php_stream_filter_free(ptr noundef %0) #0 {
  %2 = alloca ptr, align 8
  store ptr %0, ptr %2, align 8
  %3 = load ptr, ptr %2, align 8
  %4 = getelementptr inbounds %struct._php_stream_filter, ptr %3, i32 0, i32 0
  %5 = load ptr, ptr %4, align 8
  %6 = getelementptr inbounds %struct._php_stream_filter_ops, ptr %5, i32 0, i32 1
  %7 = load ptr, ptr %6, align 8
  %8 = icmp ne ptr %7, null
  br i1 %8, label %9, label %16

9:                                                ; preds = %1
  %10 = load ptr, ptr %2, align 8
  %11 = getelementptr inbounds %struct._php_stream_filter, ptr %10, i32 0, i32 0
  %12 = load ptr, ptr %11, align 8
  %13 = getelementptr inbounds %struct._php_stream_filter_ops, ptr %12, i32 0, i32 1
  %14 = load ptr, ptr %13, align 8
  %15 = load ptr, ptr %2, align 8
  call void %14(ptr noundef %15)
  br label %16

16:                                               ; preds = %9, %1
  %17 = load ptr, ptr %2, align 8
  %18 = getelementptr inbounds %struct._php_stream_filter, ptr %17, i32 0, i32 4
  %19 = load i32, ptr %18, align 8
  %20 = icmp ne i32 %19, 0
  br i1 %20, label %21, label %23

21:                                               ; preds = %16
  %22 = load ptr, ptr %2, align 8
  call void @free(ptr noundef %22) #12
  br label %25

23:                                               ; preds = %16
  %24 = load ptr, ptr %2, align 8
  call void @_efree(ptr noundef %24)
  br label %25

25:                                               ; preds = %23, %21
  ret void
}

; Function Attrs: nounwind uwtable
define ptr @php_stream_filter_remove(ptr noundef %0, i32 noundef %1) #0 {
  %3 = alloca ptr, align 8
  %4 = alloca ptr, align 8
  %5 = alloca i32, align 4
  store ptr %0, ptr %4, align 8
  store i32 %1, ptr %5, align 4
  %6 = load ptr, ptr %4, align 8
  %7 = getelementptr inbounds %struct._php_stream_filter, ptr %6, i32 0, i32 3
  %8 = load ptr, ptr %7, align 8
  %9 = icmp ne ptr %8, null
  br i1 %9, label %10, label %18

10:                                               ; preds = %2
  %11 = load ptr, ptr %4, align 8
  %12 = getelementptr inbounds %struct._php_stream_filter, ptr %11, i32 0, i32 2
  %13 = load ptr, ptr %12, align 8
  %14 = load ptr, ptr %4, align 8
  %15 = getelementptr inbounds %struct._php_stream_filter, ptr %14, i32 0, i32 3
  %16 = load ptr, ptr %15, align 8
  %17 = getelementptr inbounds %struct._php_stream_filter, ptr %16, i32 0, i32 2
  store ptr %13, ptr %17, align 8
  br label %26

18:                                               ; preds = %2
  %19 = load ptr, ptr %4, align 8
  %20 = getelementptr inbounds %struct._php_stream_filter, ptr %19, i32 0, i32 2
  %21 = load ptr, ptr %20, align 8
  %22 = load ptr, ptr %4, align 8
  %23 = getelementptr inbounds %struct._php_stream_filter, ptr %22, i32 0, i32 5
  %24 = load ptr, ptr %23, align 8
  %25 = getelementptr inbounds %struct._php_stream_filter_chain, ptr %24, i32 0, i32 0
  store ptr %21, ptr %25, align 8
  br label %26

26:                                               ; preds = %18, %10
  %27 = load ptr, ptr %4, align 8
  %28 = getelementptr inbounds %struct._php_stream_filter, ptr %27, i32 0, i32 2
  %29 = load ptr, ptr %28, align 8
  %30 = icmp ne ptr %29, null
  br i1 %30, label %31, label %39

31:                                               ; preds = %26
  %32 = load ptr, ptr %4, align 8
  %33 = getelementptr inbounds %struct._php_stream_filter, ptr %32, i32 0, i32 3
  %34 = load ptr, ptr %33, align 8
  %35 = load ptr, ptr %4, align 8
  %36 = getelementptr inbounds %struct._php_stream_filter, ptr %35, i32 0, i32 2
  %37 = load ptr, ptr %36, align 8
  %38 = getelementptr inbounds %struct._php_stream_filter, ptr %37, i32 0, i32 3
  store ptr %34, ptr %38, align 8
  br label %47

39:                                               ; preds = %26
  %40 = load ptr, ptr %4, align 8
  %41 = getelementptr inbounds %struct._php_stream_filter, ptr %40, i32 0, i32 3
  %42 = load ptr, ptr %41, align 8
  %43 = load ptr, ptr %4, align 8
  %44 = getelementptr inbounds %struct._php_stream_filter, ptr %43, i32 0, i32 5
  %45 = load ptr, ptr %44, align 8
  %46 = getelementptr inbounds %struct._php_stream_filter_chain, ptr %45, i32 0, i32 1
  store ptr %42, ptr %46, align 8
  br label %47

47:                                               ; preds = %39, %31
  %48 = load ptr, ptr %4, align 8
  %49 = getelementptr inbounds %struct._php_stream_filter, ptr %48, i32 0, i32 7
  %50 = load ptr, ptr %49, align 8
  %51 = icmp ne ptr %50, null
  br i1 %51, label %52, label %57

52:                                               ; preds = %47
  %53 = load ptr, ptr %4, align 8
  %54 = getelementptr inbounds %struct._php_stream_filter, ptr %53, i32 0, i32 7
  %55 = load ptr, ptr %54, align 8
  %56 = call i32 @zend_list_delete(ptr noundef %55)
  br label %57

57:                                               ; preds = %52, %47
  %58 = load i32, ptr %5, align 4
  %59 = icmp ne i32 %58, 0
  br i1 %59, label %60, label %62

60:                                               ; preds = %57
  %61 = load ptr, ptr %4, align 8
  call void @php_stream_filter_free(ptr noundef %61)
  store ptr null, ptr %3, align 8
  br label %64

62:                                               ; preds = %57
  %63 = load ptr, ptr %4, align 8
  store ptr %63, ptr %3, align 8
  br label %64

64:                                               ; preds = %62, %60
  %65 = load ptr, ptr %3, align 8
  ret ptr %65
}