; Function Attrs: nounwind uwtable
define noundef ptr @php_stream_filter_remove(ptr noundef %0, i32 noundef %1) local_unnamed_addr #2 {
  %3 = getelementptr inbounds i8, ptr %0, i64 32
  %4 = load ptr, ptr %3, align 8
  %.not = icmp eq ptr %4, null
  %5 = getelementptr inbounds i8, ptr %0, i64 24
  %6 = load ptr, ptr %5, align 8
  br i1 %.not, label %9, label %7

7:                                                ; preds = %2
  %8 = getelementptr inbounds i8, ptr %4, i64 24
  br label %12

9:                                                ; preds = %2
  %10 = getelementptr inbounds i8, ptr %0, i64 48
  %11 = load ptr, ptr %10, align 8
  br label %12

12:                                               ; preds = %9, %7
  %.sink = phi ptr [ %11, %9 ], [ %8, %7 ]
  store ptr %6, ptr %.sink, align 8
  %.not18 = icmp eq ptr %6, null
  %13 = load ptr, ptr %3, align 8
  br i1 %.not18, label %16, label %14

14:                                               ; preds = %12
  %15 = getelementptr inbounds i8, ptr %6, i64 32
  br label %20

16:                                               ; preds = %12
  %17 = getelementptr inbounds i8, ptr %0, i64 48
  %18 = load ptr, ptr %17, align 8
  %19 = getelementptr inbounds i8, ptr %18, i64 8
  br label %20

20:                                               ; preds = %16, %14
  %.sink21 = phi ptr [ %19, %16 ], [ %15, %14 ]
  store ptr %13, ptr %.sink21, align 8
  %21 = getelementptr inbounds i8, ptr %0, i64 72
  %22 = load ptr, ptr %21, align 8
  %.not19 = icmp eq ptr %22, null
  br i1 %.not19, label %25, label %23

23:                                               ; preds = %20
  %24 = tail call i32 @zend_list_delete(ptr noundef nonnull %22) #14
  br label %25

25:                                               ; preds = %23, %20
  %.not20 = icmp eq i32 %1, 0
  br i1 %.not20, label %php_stream_filter_free.exit, label %26

26:                                               ; preds = %25
  %27 = load ptr, ptr %0, align 8
  %28 = getelementptr inbounds i8, ptr %27, i64 8
  %29 = load ptr, ptr %28, align 8
  %.not.i = icmp eq ptr %29, null
  br i1 %.not.i, label %31, label %30

30:                                               ; preds = %26
  tail call void %29(ptr noundef nonnull %0) #14
  br label %31

31:                                               ; preds = %30, %26
  %32 = getelementptr inbounds i8, ptr %0, i64 40
  %33 = load i32, ptr %32, align 8
  %.not6.i = icmp eq i32 %33, 0
  br i1 %.not6.i, label %35, label %34

34:                                               ; preds = %31
  tail call void @free(ptr noundef nonnull %0) #14
  br label %php_stream_filter_free.exit

35:                                               ; preds = %31
  tail call void @_efree(ptr noundef nonnull %0) #14
  br label %php_stream_filter_free.exit

php_stream_filter_free.exit:                      ; preds = %35, %34, %25
  %.0 = phi ptr [ %0, %25 ], [ null, %34 ], [ null, %35 ]
  ret ptr %.0
}